; Function Attrs: mustprogress uwtable
define hidden noundef zeroext i1 @_ZN18OpenImageIO_v2_6_08PNGInput4openERKNSt7__cxx1112basic_stringIcSt11char_traitsIcESaIcEEERNS_9ImageSpecERKS9_(ptr noundef nonnull align 8 dereferenceable(312) %this, ptr noundef nonnull align 8 dereferenceable(32) %name, ptr noundef nonnull align 8 dereferenceable(160) %newspec, ptr noundef nonnull align 8 dereferenceable(160) %config) unnamed_addr #5 align 2 personality ptr @__gxx_personality_v0 {
entry:
  %agg.tmp = alloca %"class.OpenImageIO_v2_6_0::basic_string_view", align 8
  store ptr @.str.4, ptr %agg.tmp, align 8
  %m_len.i = getelementptr inbounds i8, ptr %agg.tmp, i64 8
  store i64 22, ptr %m_len.i, align 8
  %call = call noundef i32 @_ZNK18OpenImageIO_v2_6_09ImageSpec17get_int_attributeENS_17basic_string_viewIcSt11char_traitsIcEEEi(ptr noundef nonnull align 8 dereferenceable(160) %config, ptr noundef nonnull %agg.tmp, i32 noundef 0)
  %cmp = icmp eq i32 %call, 1
  br i1 %cmp, label %if.then, label %if.end

if.then:                                          ; preds = %entry
  %m_keep_unassociated_alpha = getelementptr inbounds i8, ptr %this, i64 292
  store i8 1, ptr %m_keep_unassociated_alpha, align 4
  br label %if.end

if.end:                                           ; preds = %if.then, %entry
  call void @_ZN18OpenImageIO_v2_6_010ImageInput28ioproxy_retrieve_from_configERKNS_9ImageSpecE(ptr noundef nonnull align 8 dereferenceable(184) %this, ptr noundef nonnull align 8 dereferenceable(160) %config)
  %call2 = call noalias noundef nonnull dereferenceable(160) ptr @_Znwm(i64 noundef 160) #30
  invoke void @_ZN18OpenImageIO_v2_6_09ImageSpecC2ERKS0_(ptr noundef nonnull align 8 dereferenceable(160) %call2, ptr noundef nonnull align 8 dereferenceable(160) %config)
          to label %invoke.cont unwind label %lpad

invoke.cont:                                      ; preds = %if.end
  %m_config = getelementptr inbounds i8, ptr %this, i64 296
  %0 = load ptr, ptr %m_config, align 8
  store ptr %call2, ptr %m_config, align 8
  %tobool.not.i.i = icmp eq ptr %0, null
  br i1 %tobool.not.i.i, label %_ZNSt10unique_ptrIN18OpenImageIO_v2_6_09ImageSpecESt14default_deleteIS1_EE5resetEPS1_.exit, label %if.then.i.i

if.then.i.i:                                      ; preds = %invoke.cont
  call void @_ZNKSt14default_deleteIN18OpenImageIO_v2_6_09ImageSpecEEclEPS1_(ptr noundef nonnull align 1 dereferenceable(1) %m_config, ptr noundef nonnull %0)
  br label %_ZNSt10unique_ptrIN18OpenImageIO_v2_6_09ImageSpecESt14default_deleteIS1_EE5resetEPS1_.exit

_ZNSt10unique_ptrIN18OpenImageIO_v2_6_09ImageSpecESt14default_deleteIS1_EE5resetEPS1_.exit: ; preds = %invoke.cont, %if.then.i.i
  %call3 = call noundef zeroext i1 @_ZN18OpenImageIO_v2_6_08PNGInput4openERKNSt7__cxx1112basic_stringIcSt11char_traitsIcESaIcEEERNS_9ImageSpecE(ptr noundef nonnull align 8 dereferenceable(312) %this, ptr noundef nonnull align 8 dereferenceable(32) %name, ptr noundef nonnull align 8 dereferenceable(160) %newspec)
  ret i1 %call3

lpad:                                             ; preds = %if.end
  %1 = landingpad { ptr, i32 }
          cleanup
  call void @_ZdlPv(ptr noundef nonnull %call2) #26
  resume { ptr, i32 } %1
}